target datalayout = "e-m:e-p270:32:32-p271:32:32-p272:64:64-i64:64-i128:128-f80:128-n8:16:32:64-S128"
target triple = "x86_64-unknown-linux-gnu"

%"union.base::debug::ActivityData" = type { %struct.anon.0 }
%struct.anon.0 = type { i64 }
%"class.base::TimeTicks" = type { %"class.base::time_internal::TimeBase" }
%"class.base::time_internal::TimeBase" = type { i64 }
%"struct.base::debug::Activity" = type { i64, i64, [10 x i64], i8, [7 x i8], %"union.base::debug::ActivityData" }

; Function Attrs: mustprogress nounwind uwtable
define linkonce_odr dso_local noundef i64 @_ZNK4base13time_internal8TimeBaseINS_9TimeTicksEE15ToInternalValueEv(ptr noundef nonnull align 8 dereferenceable(8) %this) #1 comdat align 2 {
entry:
  %this.addr = alloca ptr, align 8
  store ptr %this, ptr %this.addr, align 8
  %this1 = load ptr, ptr %this.addr, align 8
  %us_ = getelementptr inbounds %"class.base::time_internal::TimeBase", ptr %this1, i32 0, i32 0
  %0 = load i64, ptr %us_, align 8
  ret i64 %0
}

; Function Attrs: mustprogress uwtable
define dso_local void @_ZN4base5debug8Activity8FillFromEPS1_PKvNS1_4TypeERKNS0_12ActivityDataE(ptr noundef %activity, ptr noundef %origin, i8 noundef zeroext %type, ptr noundef nonnull align 8 dereferenceable(8) %data) #0 align 2 {
entry:
  %activity.addr = alloca ptr, align 8
  %origin.addr = alloca ptr, align 8
  %type.addr = alloca i8, align 1
  %data.addr = alloca ptr, align 8
  %ref.tmp = alloca %"class.base::TimeTicks", align 8
  store ptr %activity, ptr %activity.addr, align 8
  store ptr %origin, ptr %origin.addr, align 8
  store i8 %type, ptr %type.addr, align 1
  store ptr %data, ptr %data.addr, align 8
  %call = call i64 @_ZN4base9TimeTicks3NowEv()
  %coerce.dive = getelementptr inbounds %"class.base::TimeTicks", ptr %ref.tmp, i32 0, i32 0
  %coerce.dive1 = getelementptr inbounds %"class.base::time_internal::TimeBase", ptr %coerce.dive, i32 0, i32 0
  store i64 %call, ptr %coerce.dive1, align 8
  %call2 = call noundef i64 @_ZNK4base13time_internal8TimeBaseINS_9TimeTicksEE15ToInternalValueEv(ptr noundef nonnull align 8 dereferenceable(8) %ref.tmp)
  %0 = load ptr, ptr %activity.addr, align 8
  %time_internal = getelementptr inbounds %"struct.base::debug::Activity", ptr %0, i32 0, i32 0
  store i64 %call2, ptr %time_internal, align 8
  %1 = load ptr, ptr %origin.addr, align 8
  %2 = ptrtoint ptr %1 to i64
  %3 = load ptr, ptr %activity.addr, align 8
  %origin_address = getelementptr inbounds %"struct.base::debug::Activity", ptr %3, i32 0, i32 1
  store i64 %2, ptr %origin_address, align 8
  %4 = load i8, ptr %type.addr, align 1
  %5 = load ptr, ptr %activity.addr, align 8
  %activity_type = getelementptr inbounds %"struct.base::debug::Activity", ptr %5, i32 0, i32 3
  store i8 %4, ptr %activity_type, align 8
  %6 = load ptr, ptr %data.addr, align 8
  %7 = load ptr, ptr %activity.addr, align 8
  %data3 = getelementptr inbounds %"struct.base::debug::Activity", ptr %7, i32 0, i32 5
  call void @llvm.memcpy.p0.p0.i64(ptr align 8 %data3, ptr align 8 %6, i64 8, i1 false)
  %8 = load ptr, ptr %activity.addr, align 8
  %call_stack = getelementptr inbounds %"struct.base::debug::Activity", ptr %8, i32 0, i32 2
  %arrayidx = getelementptr inbounds [10 x i64], ptr %call_stack, i64 0, i64 0
  store i64 0, ptr %arrayidx, align 8
  ret void
}