; Function Attrs: mustprogress uwtable
define dso_local void @_ZN4base5debug8Activity8FillFromEPS1_PKvNS1_4TypeERKNS0_12ActivityDataE(ptr nocapture noundef writeonly %activity, ptr noundef %origin, i8 noundef zeroext %type, ptr nocapture noundef nonnull readonly align 8 dereferenceable(8) %data) local_unnamed_addr #1 align 2 {
entry:
  %call = tail call i64 @_ZN4base9TimeTicks3NowEv()
  store i64 %call, ptr %activity, align 8
  %0 = ptrtoint ptr %origin to i64
  %origin_address = getelementptr inbounds i8, ptr %activity, i64 8
  store i64 %0, ptr %origin_address, align 8
  %activity_type = getelementptr inbounds i8, ptr %activity, i64 96
  store i8 %type, ptr %activity_type, align 8
  %data3 = getelementptr inbounds i8, ptr %activity, i64 104
  %1 = load i64, ptr %data, align 8
  store i64 %1, ptr %data3, align 8
  %call_stack = getelementptr inbounds i8, ptr %activity, i64 16
  store i64 0, ptr %call_stack, align 8
  ret void
}